; Function Attrs: mustprogress uwtable
define hidden void @_Z21get_memory_statisticsR10statistics(ptr noundef nonnull align 8 dereferenceable(16) %st) local_unnamed_addr #3 {
entry:
  %call = tail call noundef i64 @_ZN6memory19get_max_used_memoryEv()
  %call1 = tail call noundef i64 @_ZN6memory19get_allocation_sizeEv()
  %mul = mul i64 %call, 100
  %div5 = lshr i64 %mul, 20
  %mul2 = mul i64 %call1, 100
  %div36 = lshr i64 %mul2, 20
  %conv = uitofp i64 %div5 to double
  %div4 = fdiv double %conv, 1.000000e+02
  %cmp.i = fcmp une double %div4, 0.000000e+00
  br i1 %cmp.i, label %if.then.i, label %_ZN10statistics6updateEPKcd.exit

if.then.i:                                        ; preds = %entry
  %m_d_stats.i = getelementptr inbounds i8, ptr %st, i64 8
  %0 = load ptr, ptr %m_d_stats.i, align 8
  %cmp.i.i = icmp eq ptr %0, null
  br i1 %cmp.i.i, label %if.then.i.i, label %lor.lhs.false.i.i

lor.lhs.false.i.i:                                ; preds = %if.then.i
  %arrayidx.i.i = getelementptr inbounds i8, ptr %0, i64 -4
  %1 = load i32, ptr %arrayidx.i.i, align 4
  %arrayidx4.i.i = getelementptr inbounds i8, ptr %0, i64 -8
  %2 = load i32, ptr %arrayidx4.i.i, align 4
  %cmp5.i.i = icmp eq i32 %1, %2
  br i1 %cmp5.i.i, label %if.then.i.i, label %_ZN6vectorISt4pairIPKcdELb0EjE9push_backEOS3_.exit.i

if.then.i.i:                                      ; preds = %lor.lhs.false.i.i, %if.then.i
  tail call void @_ZN6vectorISt4pairIPKcdELb0EjE13expand_vectorEv(ptr noundef nonnull align 8 dereferenceable(8) %m_d_stats.i)
  %.pre.i.i = load ptr, ptr %m_d_stats.i, align 8
  %arrayidx8.phi.trans.insert.i.i = getelementptr inbounds i8, ptr %.pre.i.i, i64 -4
  %.pre1.i.i = load i32, ptr %arrayidx8.phi.trans.insert.i.i, align 4
  br label %_ZN6vectorISt4pairIPKcdELb0EjE9push_backEOS3_.exit.i

_ZN6vectorISt4pairIPKcdELb0EjE9push_backEOS3_.exit.i: ; preds = %if.then.i.i, %lor.lhs.false.i.i
  %3 = phi i32 [ %.pre1.i.i, %if.then.i.i ], [ %1, %lor.lhs.false.i.i ]
  %4 = phi ptr [ %.pre.i.i, %if.then.i.i ], [ %0, %lor.lhs.false.i.i ]
  %idx.ext.i.i = zext i32 %3 to i64
  %add.ptr.i.i = getelementptr inbounds %"struct.std::pair.2", ptr %4, i64 %idx.ext.i.i
  store ptr @.str.6, ptr %add.ptr.i.i, align 8
  %ref.tmp.sroa.2.0.add.ptr.i.sroa_idx.i = getelementptr inbounds i8, ptr %add.ptr.i.i, i64 8
  store double %div4, ptr %ref.tmp.sroa.2.0.add.ptr.i.sroa_idx.i, align 8
  %5 = load ptr, ptr %m_d_stats.i, align 8
  %arrayidx10.i.i = getelementptr inbounds i8, ptr %5, i64 -4
  %6 = load i32, ptr %arrayidx10.i.i, align 4
  %inc.i.i = add i32 %6, 1
  store i32 %inc.i.i, ptr %arrayidx10.i.i, align 4
  br label %_ZN10statistics6updateEPKcd.exit

_ZN10statistics6updateEPKcd.exit:                 ; preds = %entry, %_ZN6vectorISt4pairIPKcdELb0EjE9push_backEOS3_.exit.i
  %conv5 = uitofp i64 %div36 to double
  %div6 = fdiv double %conv5, 1.000000e+02
  %cmp.i7 = fcmp une double %div6, 0.000000e+00
  br i1 %cmp.i7, label %if.then.i8, label %_ZN10statistics6updateEPKcd.exit25

if.then.i8:                                       ; preds = %_ZN10statistics6updateEPKcd.exit
  %m_d_stats.i9 = getelementptr inbounds i8, ptr %st, i64 8
  %7 = load ptr, ptr %m_d_stats.i9, align 8
  %cmp.i.i10 = icmp eq ptr %7, null
  br i1 %cmp.i.i10, label %if.then.i.i21, label %lor.lhs.false.i.i11

lor.lhs.false.i.i11:                              ; preds = %if.then.i8
  %arrayidx.i.i12 = getelementptr inbounds i8, ptr %7, i64 -4
  %8 = load i32, ptr %arrayidx.i.i12, align 4
  %arrayidx4.i.i13 = getelementptr inbounds i8, ptr %7, i64 -8
  %9 = load i32, ptr %arrayidx4.i.i13, align 4
  %cmp5.i.i14 = icmp eq i32 %8, %9
  br i1 %cmp5.i.i14, label %if.then.i.i21, label %_ZN6vectorISt4pairIPKcdELb0EjE9push_backEOS3_.exit.i15

if.then.i.i21:                                    ; preds = %lor.lhs.false.i.i11, %if.then.i8
  tail call void @_ZN6vectorISt4pairIPKcdELb0EjE13expand_vectorEv(ptr noundef nonnull align 8 dereferenceable(8) %m_d_stats.i9)
  %.pre.i.i22 = load ptr, ptr %m_d_stats.i9, align 8
  %arrayidx8.phi.trans.insert.i.i23 = getelementptr inbounds i8, ptr %.pre.i.i22, i64 -4
  %.pre1.i.i24 = load i32, ptr %arrayidx8.phi.trans.insert.i.i23, align 4
  br label %_ZN6vectorISt4pairIPKcdELb0EjE9push_backEOS3_.exit.i15

_ZN6vectorISt4pairIPKcdELb0EjE9push_backEOS3_.exit.i15: ; preds = %if.then.i.i21, %lor.lhs.false.i.i11
  %10 = phi i32 [ %.pre1.i.i24, %if.then.i.i21 ], [ %8, %lor.lhs.false.i.i11 ]
  %11 = phi ptr [ %.pre.i.i22, %if.then.i.i21 ], [ %7, %lor.lhs.false.i.i11 ]
  %idx.ext.i.i16 = zext i32 %10 to i64
  %add.ptr.i.i17 = getelementptr inbounds %"struct.std::pair.2", ptr %11, i64 %idx.ext.i.i16
  store ptr @.str.7, ptr %add.ptr.i.i17, align 8
  %ref.tmp.sroa.2.0.add.ptr.i.sroa_idx.i18 = getelementptr inbounds i8, ptr %add.ptr.i.i17, i64 8
  store double %div6, ptr %ref.tmp.sroa.2.0.add.ptr.i.sroa_idx.i18, align 8
  %12 = load ptr, ptr %m_d_stats.i9, align 8
  %arrayidx10.i.i19 = getelementptr inbounds i8, ptr %12, i64 -4
  %13 = load i32, ptr %arrayidx10.i.i19, align 4
  %inc.i.i20 = add i32 %13, 1
  store i32 %inc.i.i20, ptr %arrayidx10.i.i19, align 4
  br label %_ZN10statistics6updateEPKcd.exit25

_ZN10statistics6updateEPKcd.exit25:               ; preds = %_ZN10statistics6updateEPKcd.exit, %_ZN6vectorISt4pairIPKcdELb0EjE9push_backEOS3_.exit.i15
  %call7 = tail call noundef i64 @_ZN6memory20get_allocation_countEv()
  %cmp.i26 = icmp ult i64 %call7, 4294967296
  br i1 %cmp.i26, label %if.then.i27, label %if.else.i

if.then.i27:                                      ; preds = %_ZN10statistics6updateEPKcd.exit25
  %conv.i = trunc i64 %call7 to i32
  %cmp.not.i.i = icmp eq i32 %conv.i, 0
  br i1 %cmp.not.i.i, label %_ZL16get_uint64_statsR10statisticsPKcy.exit, label %if.then.i.i28

if.then.i.i28:                                    ; preds = %if.then.i27
  %14 = load ptr, ptr %st, align 8
  %cmp.i.i.i = icmp eq ptr %14, null
  br i1 %cmp.i.i.i, label %if.then.i.i.i, label %lor.lhs.false.i.i.i

lor.lhs.false.i.i.i:                              ; preds = %if.then.i.i28
  %arrayidx.i.i.i = getelementptr inbounds i8, ptr %14, i64 -4
  %15 = load i32, ptr %arrayidx.i.i.i, align 4
  %arrayidx4.i.i.i = getelementptr inbounds i8, ptr %14, i64 -8
  %16 = load i32, ptr %arrayidx4.i.i.i, align 4
  %cmp5.i.i.i = icmp eq i32 %15, %16
  br i1 %cmp5.i.i.i, label %if.then.i.i.i, label %_ZN6vectorISt4pairIPKcjELb0EjE9push_backEOS3_.exit.i.i

if.then.i.i.i:                                    ; preds = %lor.lhs.false.i.i.i, %if.then.i.i28
  tail call void @_ZN6vectorISt4pairIPKcjELb0EjE13expand_vectorEv(ptr noundef nonnull align 8 dereferenceable(8) %st)
  %.pre.i.i.i = load ptr, ptr %st, align 8
  %arrayidx8.phi.trans.insert.i.i.i = getelementptr inbounds i8, ptr %.pre.i.i.i, i64 -4
  %.pre1.i.i.i = load i32, ptr %arrayidx8.phi.trans.insert.i.i.i, align 4
  br label %_ZN6vectorISt4pairIPKcjELb0EjE9push_backEOS3_.exit.i.i

_ZN6vectorISt4pairIPKcjELb0EjE9push_backEOS3_.exit.i.i: ; preds = %if.then.i.i.i, %lor.lhs.false.i.i.i
  %17 = phi i32 [ %.pre1.i.i.i, %if.then.i.i.i ], [ %15, %lor.lhs.false.i.i.i ]
  %18 = phi ptr [ %.pre.i.i.i, %if.then.i.i.i ], [ %14, %lor.lhs.false.i.i.i ]
  %idx.ext.i.i.i = zext i32 %17 to i64
  %add.ptr.i.i.i = getelementptr inbounds %"struct.std::pair", ptr %18, i64 %idx.ext.i.i.i
  store ptr @.str.8, ptr %add.ptr.i.i.i, align 8
  %ref.tmp.sroa.2.0.add.ptr.i.sroa_idx.i.i = getelementptr inbounds i8, ptr %add.ptr.i.i.i, i64 8
  store i32 %conv.i, ptr %ref.tmp.sroa.2.0.add.ptr.i.sroa_idx.i.i, align 8
  br label %if.end.sink.split.i

if.else.i:                                        ; preds = %_ZN10statistics6updateEPKcd.exit25
  %conv1.i = uitofp i64 %call7 to double
  %m_d_stats.i.i = getelementptr inbounds i8, ptr %st, i64 8
  %19 = load ptr, ptr %m_d_stats.i.i, align 8
  %cmp.i.i6.i = icmp eq ptr %19, null
  br i1 %cmp.i.i6.i, label %if.then.i.i16.i, label %lor.lhs.false.i.i7.i

lor.lhs.false.i.i7.i:                             ; preds = %if.else.i
  %arrayidx.i.i8.i = getelementptr inbounds i8, ptr %19, i64 -4
  %20 = load i32, ptr %arrayidx.i.i8.i, align 4
  %arrayidx4.i.i9.i = getelementptr inbounds i8, ptr %19, i64 -8
  %21 = load i32, ptr %arrayidx4.i.i9.i, align 4
  %cmp5.i.i10.i = icmp eq i32 %20, %21
  br i1 %cmp5.i.i10.i, label %if.then.i.i16.i, label %_ZN6vectorISt4pairIPKcdELb0EjE9push_backEOS3_.exit.i.i

if.then.i.i16.i:                                  ; preds = %lor.lhs.false.i.i7.i, %if.else.i
  tail call void @_ZN6vectorISt4pairIPKcdELb0EjE13expand_vectorEv(ptr noundef nonnull align 8 dereferenceable(8) %m_d_stats.i.i)
  %.pre.i.i17.i = load ptr, ptr %m_d_stats.i.i, align 8
  %arrayidx8.phi.trans.insert.i.i18.i = getelementptr inbounds i8, ptr %.pre.i.i17.i, i64 -4
  %.pre1.i.i19.i = load i32, ptr %arrayidx8.phi.trans.insert.i.i18.i, align 4
  br label %_ZN6vectorISt4pairIPKcdELb0EjE9push_backEOS3_.exit.i.i

_ZN6vectorISt4pairIPKcdELb0EjE9push_backEOS3_.exit.i.i: ; preds = %if.then.i.i16.i, %lor.lhs.false.i.i7.i
  %22 = phi i32 [ %.pre1.i.i19.i, %if.then.i.i16.i ], [ %20, %lor.lhs.false.i.i7.i ]
  %23 = phi ptr [ %.pre.i.i17.i, %if.then.i.i16.i ], [ %19, %lor.lhs.false.i.i7.i ]
  %idx.ext.i.i11.i = zext i32 %22 to i64
  %add.ptr.i.i12.i = getelementptr inbounds %"struct.std::pair.2", ptr %23, i64 %idx.ext.i.i11.i
  store ptr @.str.8, ptr %add.ptr.i.i12.i, align 8
  %ref.tmp.sroa.2.0.add.ptr.i.sroa_idx.i13.i = getelementptr inbounds i8, ptr %add.ptr.i.i12.i, i64 8
  store double %conv1.i, ptr %ref.tmp.sroa.2.0.add.ptr.i.sroa_idx.i13.i, align 8
  br label %if.end.sink.split.i

if.end.sink.split.i:                              ; preds = %_ZN6vectorISt4pairIPKcdELb0EjE9push_backEOS3_.exit.i.i, %_ZN6vectorISt4pairIPKcjELb0EjE9push_backEOS3_.exit.i.i
  %st.sink.i = phi ptr [ %st, %_ZN6vectorISt4pairIPKcjELb0EjE9push_backEOS3_.exit.i.i ], [ %m_d_stats.i.i, %_ZN6vectorISt4pairIPKcdELb0EjE9push_backEOS3_.exit.i.i ]
  %24 = load ptr, ptr %st.sink.i, align 8
  %arrayidx10.i.i.i = getelementptr inbounds i8, ptr %24, i64 -4
  %25 = load i32, ptr %arrayidx10.i.i.i, align 4
  %inc.i.i15.i = add i32 %25, 1
  store i32 %inc.i.i15.i, ptr %arrayidx10.i.i.i, align 4
  br label %_ZL16get_uint64_statsR10statisticsPKcy.exit

_ZL16get_uint64_statsR10statisticsPKcy.exit:      ; preds = %if.then.i27, %if.end.sink.split.i
  ret void
}